target datalayout = "e-m:e-p270:32:32-p271:32:32-p272:64:64-i64:64-f80:128-n8:16:32:64-S128"
target triple = "x86_64-pc-linux-gnu"

@.str = private unnamed_addr constant [3 x i8] c"%d\00", align 1
@.str.1 = private unnamed_addr constant [4 x i8] c",%d\00", align 1

; Function Attrs: noinline nounwind uwtable
define dso_local i32 @main(i32 %0, i8** %1) #0 {
  %3 = alloca i32, align 4
  %4 = alloca i32, align 4
  %5 = alloca i8**, align 8
  %6 = alloca i32, align 4
  %7 = alloca i32, align 4
  %8 = alloca i32, align 4
  %9 = alloca i32*, align 8
  %10 = alloca double, align 8
  %11 = alloca double*, align 8
  %12 = alloca i32, align 4
  %13 = alloca double, align 8
  %14 = alloca i32, align 4
  store i32 0, i32* %3, align 4
  store i32 %0, i32* %4, align 4
  store i8** %1, i8*** %5, align 8
  store i32 0, i32* %8, align 4
  %15 = call i32 (i8*, ...) @__isoc99_scanf(i8* getelementptr inbounds ([3 x i8], [3 x i8]* @.str, i64 0, i64 0), i32* %6)
  %16 = load i32, i32* %6, align 4
  %17 = sext i32 %16 to i64
  %18 = mul i64 4, %17
  %19 = call noalias i8* @malloc(i64 %18) #4
  %20 = bitcast i8* %19 to i32*
  store i32* %20, i32** %9, align 8
  store i32 0, i32* %7, align 4
  br label %21

21:                                               ; preds = %38, %2
  %22 = load i32, i32* %7, align 4
  %23 = load i32, i32* %6, align 4
  %24 = icmp slt i32 %22, %23
  br i1 %24, label %25, label %41

25:                                               ; preds = %21
  %26 = load i32*, i32** %9, align 8
  %27 = load i32, i32* %7, align 4
  %28 = sext i32 %27 to i64
  %29 = getelementptr inbounds i32, i32* %26, i64 %28
  %30 = call i32 (i8*, ...) @__isoc99_scanf(i8* getelementptr inbounds ([3 x i8], [3 x i8]* @.str, i64 0, i64 0), i32* %29)
  %31 = load i32*, i32** %9, align 8
  %32 = load i32, i32* %7, align 4
  %33 = sext i32 %32 to i64
  %34 = getelementptr inbounds i32, i32* %31, i64 %33
  %35 = load i32, i32* %34, align 4
  %36 = load i32, i32* %8, align 4
  %37 = add nsw i32 %36, %35
  store i32 %37, i32* %8, align 4
  br label %38

38:                                               ; preds = %25
  %39 = load i32, i32* %7, align 4
  %40 = add nsw i32 %39, 1
  store i32 %40, i32* %7, align 4
  br label %21

41:                                               ; preds = %21
  %42 = load i32, i32* %8, align 4
  %43 = sitofp i32 %42 to double
  %44 = fmul double %43, 1.000000e+00
  %45 = load i32, i32* %6, align 4
  %46 = sitofp i32 %45 to double
  %47 = fmul double %46, 1.000000e+00
  %48 = fdiv double %44, %47
  store double %48, double* %10, align 8
  %49 = load i32, i32* %6, align 4
  %50 = sext i32 %49 to i64
  %51 = mul i64 8, %50
  %52 = call noalias i8* @malloc(i64 %51) #4
  %53 = bitcast i8* %52 to double*
  store double* %53, double** %11, align 8
  store i32 0, i32* %7, align 4
  br label %54

54:                                               ; preds = %73, %41
  %55 = load i32, i32* %7, align 4
  %56 = load i32, i32* %6, align 4
  %57 = icmp slt i32 %55, %56
  br i1 %57, label %58, label %76

58:                                               ; preds = %54
  %59 = load i32*, i32** %9, align 8
  %60 = load i32, i32* %7, align 4
  %61 = sext i32 %60 to i64
  %62 = getelementptr inbounds i32, i32* %59, i64 %61
  %63 = load i32, i32* %62, align 4
  %64 = sitofp i32 %63 to double
  %65 = fmul double %64, 1.000000e+00
  %66 = load double, double* %10, align 8
  %67 = fsub double %65, %66
  %68 = call double @llvm.fabs.f64(double %67)
  %69 = load double*, double** %11, align 8
  %70 = load i32, i32* %7, align 4
  %71 = sext i32 %70 to i64
  %72 = getelementptr inbounds double, double* %69, i64 %71
  store double %68, double* %72, align 8
  br label %73

73:                                               ; preds = %58
  %74 = load i32, i32* %7, align 4
  %75 = add nsw i32 %74, 1
  store i32 %75, i32* %7, align 4
  br label %54

76:                                               ; preds = %54
  store i32 0, i32* %12, align 4
  %77 = load double*, double** %11, align 8
  %78 = getelementptr inbounds double, double* %77, i64 0
  %79 = load double, double* %78, align 8
  store double %79, double* %13, align 8
  store i32 0, i32* %7, align 4
  br label %80

80:                                               ; preds = %100, %76
  %81 = load i32, i32* %7, align 4
  %82 = load i32, i32* %6, align 4
  %83 = icmp slt i32 %81, %82
  br i1 %83, label %84, label %103

84:                                               ; preds = %80
  %85 = load double, double* %13, align 8
  %86 = load double*, double** %11, align 8
  %87 = load i32, i32* %7, align 4
  %88 = sext i32 %87 to i64
  %89 = getelementptr inbounds double, double* %86, i64 %88
  %90 = load double, double* %89, align 8
  %91 = fcmp olt double %85, %90
  br i1 %91, label %92, label %99

92:                                               ; preds = %84
  %93 = load double*, double** %11, align 8
  %94 = load i32, i32* %7, align 4
  %95 = sext i32 %94 to i64
  %96 = getelementptr inbounds double, double* %93, i64 %95
  %97 = load double, double* %96, align 8
  store double %97, double* %13, align 8
  %98 = load i32, i32* %7, align 4
  store i32 %98, i32* %12, align 4
  br label %99

99:                                               ; preds = %92, %84
  br label %100

100:                                              ; preds = %99
  %101 = load i32, i32* %7, align 4
  %102 = add nsw i32 %101, 1
  store i32 %102, i32* %7, align 4
  br label %80

103:                                              ; preds = %80
  store i32 0, i32* %14, align 4
  store i32 0, i32* %7, align 4
  br label %104

104:                                              ; preds = %120, %103
  %105 = load i32, i32* %7, align 4
  %106 = load i32, i32* %6, align 4
  %107 = icmp slt i32 %105, %106
  br i1 %107, label %108, label %123

108:                                              ; preds = %104
  %109 = load double*, double** %11, align 8
  %110 = load i32, i32* %7, align 4
  %111 = sext i32 %110 to i64
  %112 = getelementptr inbounds double, double* %109, i64 %111
  %113 = load double, double* %112, align 8
  %114 = load double, double* %13, align 8
  %115 = fcmp oeq double %113, %114
  br i1 %115, label %116, label %119

116:                                              ; preds = %108
  %117 = load i32, i32* %14, align 4
  %118 = add nsw i32 %117, 1
  store i32 %118, i32* %14, align 4
  br label %119

119:                                              ; preds = %116, %108
  br label %120

120:                                              ; preds = %119
  %121 = load i32, i32* %7, align 4
  %122 = add nsw i32 %121, 1
  store i32 %122, i32* %7, align 4
  br label %104

123:                                              ; preds = %104
  %124 = load i32*, i32** %9, align 8
  %125 = load i32, i32* %12, align 4
  %126 = sext i32 %125 to i64
  %127 = getelementptr inbounds i32, i32* %124, i64 %126
  %128 = load i32, i32* %127, align 4
  %129 = call i32 (i8*, ...) @printf(i8* getelementptr inbounds ([3 x i8], [3 x i8]* @.str, i64 0, i64 0), i32 %128)
  %130 = load i32, i32* %14, align 4
  %131 = icmp ne i32 %130, 1
  br i1 %131, label %132, label %159

132:                                              ; preds = %123
  %133 = load i32, i32* %12, align 4
  %134 = add nsw i32 %133, 1
  store i32 %134, i32* %7, align 4
  br label %135

135:                                              ; preds = %155, %132
  %136 = load i32, i32* %7, align 4
  %137 = load i32, i32* %6, align 4
  %138 = icmp slt i32 %136, %137
  br i1 %138, label %139, label %158

139:                                              ; preds = %135
  %140 = load double*, double** %11, align 8
  %141 = load i32, i32* %7, align 4
  %142 = sext i32 %141 to i64
  %143 = getelementptr inbounds double, double* %140, i64 %142
  %144 = load double, double* %143, align 8
  %145 = load double, double* %13, align 8
  %146 = fcmp oeq double %144, %145
  br i1 %146, label %147, label %154

147:                                              ; preds = %139
  %148 = load i32*, i32** %9, align 8
  %149 = load i32, i32* %7, align 4
  %150 = sext i32 %149 to i64
  %151 = getelementptr inbounds i32, i32* %148, i64 %150
  %152 = load i32, i32* %151, align 4
  %153 = call i32 (i8*, ...) @printf(i8* getelementptr inbounds ([4 x i8], [4 x i8]* @.str.1, i64 0, i64 0), i32 %152)
  br label %154

154:                                              ; preds = %147, %139
  br label %155

155:                                              ; preds = %154
  %156 = load i32, i32* %7, align 4
  %157 = add nsw i32 %156, 1
  store i32 %157, i32* %7, align 4
  br label %135

158:                                              ; preds = %135
  br label %159

159:                                              ; preds = %158, %123
  ret i32 0
}